target datalayout = "e-m:e-p270:32:32-p271:32:32-p272:64:64-i64:64-i128:128-f80:128-n8:16:32:64-S128"
target triple = "x86_64-pc-linux-gnu"

%"struct.clang::interp::BlockPointer" = type { ptr, i32 }
%"class.clang::interp::Pointer" = type <{ i64, ptr, ptr, %union.anon, i32, [4 x i8] }>
%union.anon = type { %"struct.clang::interp::BlockPointer", [8 x i8] }

; Function Attrs: mustprogress nounwind uwtable
define dso_local void @_ZN5clang6interp7PointerC2EPNS0_5BlockEjm(ptr noundef nonnull align 8 dereferenceable(52) %0, ptr noundef %1, i32 noundef %2, i64 noundef %3) unnamed_addr #0 align 2 {
  %5 = alloca ptr, align 8
  %6 = alloca ptr, align 8
  %7 = alloca i32, align 4
  %8 = alloca i64, align 8
  %9 = alloca %"struct.clang::interp::BlockPointer", align 8
  store ptr %0, ptr %5, align 8
  store ptr %1, ptr %6, align 8
  store i32 %2, ptr %7, align 4
  store i64 %3, ptr %8, align 8
  %10 = load ptr, ptr %5, align 8
  %11 = getelementptr inbounds nuw %"class.clang::interp::Pointer", ptr %10, i32 0, i32 0
  %12 = load i64, ptr %8, align 8
  store i64 %12, ptr %11, align 8
  %13 = getelementptr inbounds nuw %"class.clang::interp::Pointer", ptr %10, i32 0, i32 1
  store ptr null, ptr %13, align 8
  %14 = getelementptr inbounds nuw %"class.clang::interp::Pointer", ptr %10, i32 0, i32 2
  store ptr null, ptr %14, align 8
  %15 = getelementptr inbounds nuw %"class.clang::interp::Pointer", ptr %10, i32 0, i32 4
  store i32 0, ptr %15, align 8
  %16 = getelementptr inbounds nuw %"struct.clang::interp::BlockPointer", ptr %9, i32 0, i32 0
  %17 = load ptr, ptr %6, align 8
  store ptr %17, ptr %16, align 8
  %18 = getelementptr inbounds nuw %"struct.clang::interp::BlockPointer", ptr %9, i32 0, i32 1
  %19 = load i32, ptr %7, align 4
  store i32 %19, ptr %18, align 8
  %20 = getelementptr inbounds nuw %"class.clang::interp::Pointer", ptr %10, i32 0, i32 3
  call void @llvm.memcpy.p0.p0.i64(ptr align 8 %20, ptr align 8 %9, i64 16, i1 false)
  %21 = load ptr, ptr %6, align 8
  %22 = icmp ne ptr %21, null
  br i1 %22, label %23, label %25

23:                                               ; preds = %4
  %24 = load ptr, ptr %6, align 8
  call void @_ZN5clang6interp5Block10addPointerEPNS0_7PointerE(ptr noundef nonnull align 8 dereferenceable(40) %24, ptr noundef %10)
  br label %25

25:                                               ; preds = %23, %4
  ret void
}