; Function Attrs: mustprogress nounwind uwtable
define dso_local void @_ZN5clang6interp7PointerC2EPNS0_5BlockEjm(ptr noundef nonnull align 8 dereferenceable(52) %0, ptr noundef %1, i32 noundef %2, i64 noundef %3) unnamed_addr #0 align 2 {
  store i64 %3, ptr %0, align 8
  %5 = getelementptr inbounds nuw i8, ptr %0, i64 8
  %6 = getelementptr inbounds nuw i8, ptr %0, i64 48
  store i32 0, ptr %6, align 8
  %7 = getelementptr inbounds nuw i8, ptr %0, i64 24
  tail call void @llvm.memset.p0.i64(ptr noundef nonnull align 8 dereferenceable(16) %5, i8 0, i64 16, i1 false)
  store ptr %1, ptr %7, align 8
  %.sroa.2.0..sroa_idx = getelementptr inbounds i8, ptr %0, i64 32
  store i32 %2, ptr %.sroa.2.0..sroa_idx, align 8
  %.not = icmp eq ptr %1, null
  br i1 %.not, label %9, label %8

8:                                                ; preds = %4
  tail call void @_ZN5clang6interp5Block10addPointerEPNS0_7PointerE(ptr noundef nonnull align 8 dereferenceable(40) %1, ptr noundef nonnull %0) #18
  br label %9

9:                                                ; preds = %8, %4
  ret void
}